target datalayout = "e-m:e-p270:32:32-p271:32:32-p272:64:64-i64:64-i128:128-f80:128-n8:16:32:64-S128"
target triple = "x86_64-pc-linux-gnu"

%class.TypeOopPtr = type { %class.TypePtr.base, ptr, ptr, ptr, i8, i8, i8, i8, i32 }
%class.TypePtr.base = type <{ %class.Type.base, [4 x i8], ptr, i32, i32, i32 }>
%class.Type.base = type <{ ptr, ptr, i32 }>
%class.TypePtr = type <{ %class.Type.base, [4 x i8], ptr, i32, i32, i32, [4 x i8] }>

; Function Attrs: mustprogress nounwind uwtable
define hidden noundef ptr @_ZNK10TypeOopPtr18remove_speculativeEv(ptr noundef nonnull align 8 dereferenceable(80) %0) unnamed_addr #1 align 2 {
  %2 = alloca ptr, align 8
  %3 = alloca ptr, align 8
  store ptr %0, ptr %3, align 8
  %4 = load ptr, ptr %3, align 8
  %5 = getelementptr inbounds %class.TypePtr, ptr %4, i32 0, i32 2
  %6 = load ptr, ptr %5, align 8
  %7 = icmp eq ptr %6, null
  br i1 %7, label %8, label %9

8:                                                ; preds = %1
  store ptr %4, ptr %2, align 8
  br label %19

9:                                                ; preds = %1
  %10 = getelementptr inbounds %class.TypePtr, ptr %4, i32 0, i32 5
  %11 = load i32, ptr %10, align 8
  %12 = getelementptr inbounds %class.TypePtr, ptr %4, i32 0, i32 4
  %13 = load i32, ptr %12, align 4
  %14 = getelementptr inbounds %class.TypeOopPtr, ptr %4, i32 0, i32 8
  %15 = load i32, ptr %14, align 4
  %16 = getelementptr inbounds %class.TypePtr, ptr %4, i32 0, i32 3
  %17 = load i32, ptr %16, align 8
  %18 = call noundef ptr @_ZN10TypeOopPtr4makeEN7TypePtr3PTREiiPKS0_i(i32 noundef %11, i32 noundef %13, i32 noundef %15, ptr noundef null, i32 noundef %17)
  store ptr %18, ptr %2, align 8
  br label %19

19:                                               ; preds = %9, %8
  %20 = load ptr, ptr %2, align 8
  ret ptr %20
}