; Function Attrs: mustprogress nounwind uwtable
define hidden noundef ptr @_ZNK10TypeOopPtr18remove_speculativeEv(ptr noundef nonnull readonly align 8 dereferenceable(80) %0) unnamed_addr #0 align 2 {
  %2 = getelementptr inbounds i8, ptr %0, i64 24
  %3 = load ptr, ptr %2, align 8
  %4 = icmp eq ptr %3, null
  br i1 %4, label %15, label %5

5:                                                ; preds = %1
  %6 = getelementptr inbounds i8, ptr %0, i64 40
  %7 = load i32, ptr %6, align 8
  %8 = getelementptr inbounds i8, ptr %0, i64 36
  %9 = load i32, ptr %8, align 4
  %10 = getelementptr inbounds i8, ptr %0, i64 76
  %11 = load i32, ptr %10, align 4
  %12 = getelementptr inbounds i8, ptr %0, i64 32
  %13 = load i32, ptr %12, align 8
  %14 = tail call noundef ptr @_ZN10TypeOopPtr4makeEN7TypePtr3PTREiiPKS0_i(i32 noundef %7, i32 noundef %9, i32 noundef %11, ptr noundef null, i32 noundef %13)
  br label %15

15:                                               ; preds = %1, %5
  %.0 = phi ptr [ %14, %5 ], [ %0, %1 ]
  ret ptr %.0
}